target datalayout = "e-m:e-p270:32:32-p271:32:32-p272:64:64-i64:64-f80:128-n8:16:32:64-S128"
target triple = "x86_64-pc-linux-gnu"

@__const.main.single_author = private unnamed_addr constant [26 x i8] c"ABCDEFGHIJKLMNOPQRSTUVWXYZ", align 16
@.str = private unnamed_addr constant [3 x i8] c"%d\00", align 1
@.str.1 = private unnamed_addr constant [5 x i8] c"%d%s\00", align 1
@.str.2 = private unnamed_addr constant [4 x i8] c"%c\0A\00", align 1
@.str.3 = private unnamed_addr constant [4 x i8] c"%d\0A\00", align 1

; Function Attrs: noinline nounwind uwtable
define dso_local i32 @main() #0 {
  %1 = alloca i32, align 4
  %2 = alloca i32, align 4
  %3 = alloca [1000 x i32], align 16
  %4 = alloca [1000 x [27 x i8]], align 16
  %5 = alloca [26 x i8], align 16
  %6 = alloca [26 x i32], align 16
  %7 = alloca i32, align 4
  %8 = alloca i32, align 4
  %9 = alloca i32, align 4
  %10 = alloca i32, align 4
  store i32 0, i32* %1, align 4
  %11 = bitcast [26 x i8]* %5 to i8*
  call void @llvm.memcpy.p0i8.p0i8.i64(i8* align 16 %11, i8* align 16 getelementptr inbounds ([26 x i8], [26 x i8]* @__const.main.single_author, i32 0, i32 0), i64 26, i1 false)
  %12 = bitcast [26 x i32]* %6 to i8*
  call void @llvm.memset.p0i8.i64(i8* align 16 %12, i8 0, i64 104, i1 false)
  %13 = call i32 (i8*, ...) @__isoc99_scanf(i8* getelementptr inbounds ([3 x i8], [3 x i8]* @.str, i64 0, i64 0), i32* %2)
  store i32 0, i32* %7, align 4
  br label %14

14:                                               ; preds = %70, %0
  %15 = load i32, i32* %7, align 4
  %16 = load i32, i32* %2, align 4
  %17 = icmp slt i32 %15, %16
  br i1 %17, label %18, label %73

18:                                               ; preds = %14
  %19 = load i32, i32* %7, align 4
  %20 = sext i32 %19 to i64
  %21 = getelementptr inbounds [1000 x i32], [1000 x i32]* %3, i64 0, i64 %20
  %22 = load i32, i32* %7, align 4
  %23 = sext i32 %22 to i64
  %24 = getelementptr inbounds [1000 x [27 x i8]], [1000 x [27 x i8]]* %4, i64 0, i64 %23
  %25 = getelementptr inbounds [27 x i8], [27 x i8]* %24, i64 0, i64 0
  %26 = call i32 (i8*, ...) @__isoc99_scanf(i8* getelementptr inbounds ([5 x i8], [5 x i8]* @.str.1, i64 0, i64 0), i32* %21, i8* %25)
  store i32 0, i32* %8, align 4
  br label %27

27:                                               ; preds = %66, %18
  %28 = load i32, i32* %8, align 4
  %29 = sext i32 %28 to i64
  %30 = load i32, i32* %7, align 4
  %31 = sext i32 %30 to i64
  %32 = getelementptr inbounds [1000 x [27 x i8]], [1000 x [27 x i8]]* %4, i64 0, i64 %31
  %33 = getelementptr inbounds [27 x i8], [27 x i8]* %32, i64 0, i64 0
  %34 = call i64 @strlen(i8* %33) #4
  %35 = icmp ult i64 %29, %34
  br i1 %35, label %36, label %69

36:                                               ; preds = %27
  store i32 0, i32* %9, align 4
  br label %37

37:                                               ; preds = %62, %36
  %38 = load i32, i32* %9, align 4
  %39 = icmp slt i32 %38, 26
  br i1 %39, label %40, label %65

40:                                               ; preds = %37
  %41 = load i32, i32* %7, align 4
  %42 = sext i32 %41 to i64
  %43 = getelementptr inbounds [1000 x [27 x i8]], [1000 x [27 x i8]]* %4, i64 0, i64 %42
  %44 = load i32, i32* %8, align 4
  %45 = sext i32 %44 to i64
  %46 = getelementptr inbounds [27 x i8], [27 x i8]* %43, i64 0, i64 %45
  %47 = load i8, i8* %46, align 1
  %48 = sext i8 %47 to i32
  %49 = load i32, i32* %9, align 4
  %50 = sext i32 %49 to i64
  %51 = getelementptr inbounds [26 x i8], [26 x i8]* %5, i64 0, i64 %50
  %52 = load i8, i8* %51, align 1
  %53 = sext i8 %52 to i32
  %54 = icmp eq i32 %48, %53
  br i1 %54, label %55, label %61

55:                                               ; preds = %40
  %56 = load i32, i32* %9, align 4
  %57 = sext i32 %56 to i64
  %58 = getelementptr inbounds [26 x i32], [26 x i32]* %6, i64 0, i64 %57
  %59 = load i32, i32* %58, align 4
  %60 = add nsw i32 %59, 1
  store i32 %60, i32* %58, align 4
  br label %65

61:                                               ; preds = %40
  br label %62

62:                                               ; preds = %61
  %63 = load i32, i32* %9, align 4
  %64 = add nsw i32 %63, 1
  store i32 %64, i32* %9, align 4
  br label %37

65:                                               ; preds = %55, %37
  br label %66

66:                                               ; preds = %65
  %67 = load i32, i32* %8, align 4
  %68 = add nsw i32 %67, 1
  store i32 %68, i32* %8, align 4
  br label %27

69:                                               ; preds = %27
  br label %70

70:                                               ; preds = %69
  %71 = load i32, i32* %7, align 4
  %72 = add nsw i32 %71, 1
  store i32 %72, i32* %7, align 4
  br label %14

73:                                               ; preds = %14
  store i32 0, i32* %10, align 4
  store i32 1, i32* %7, align 4
  br label %74

74:                                               ; preds = %90, %73
  %75 = load i32, i32* %7, align 4
  %76 = icmp slt i32 %75, 26
  br i1 %76, label %77, label %93

77:                                               ; preds = %74
  %78 = load i32, i32* %7, align 4
  %79 = sext i32 %78 to i64
  %80 = getelementptr inbounds [26 x i32], [26 x i32]* %6, i64 0, i64 %79
  %81 = load i32, i32* %80, align 4
  %82 = load i32, i32* %10, align 4
  %83 = sext i32 %82 to i64
  %84 = getelementptr inbounds [26 x i32], [26 x i32]* %6, i64 0, i64 %83
  %85 = load i32, i32* %84, align 4
  %86 = icmp sgt i32 %81, %85
  br i1 %86, label %87, label %89

87:                                               ; preds = %77
  %88 = load i32, i32* %7, align 4
  store i32 %88, i32* %10, align 4
  br label %89

89:                                               ; preds = %87, %77
  br label %90

90:                                               ; preds = %89
  %91 = load i32, i32* %7, align 4
  %92 = add nsw i32 %91, 1
  store i32 %92, i32* %7, align 4
  br label %74

93:                                               ; preds = %74
  %94 = load i32, i32* %10, align 4
  %95 = sext i32 %94 to i64
  %96 = getelementptr inbounds [26 x i8], [26 x i8]* %5, i64 0, i64 %95
  %97 = load i8, i8* %96, align 1
  %98 = sext i8 %97 to i32
  %99 = call i32 (i8*, ...) @printf(i8* getelementptr inbounds ([4 x i8], [4 x i8]* @.str.2, i64 0, i64 0), i32 %98)
  %100 = load i32, i32* %10, align 4
  %101 = sext i32 %100 to i64
  %102 = getelementptr inbounds [26 x i32], [26 x i32]* %6, i64 0, i64 %101
  %103 = load i32, i32* %102, align 4
  %104 = call i32 (i8*, ...) @printf(i8* getelementptr inbounds ([4 x i8], [4 x i8]* @.str.3, i64 0, i64 0), i32 %103)
  store i32 0, i32* %7, align 4
  br label %105

105:                                              ; preds = %145, %93
  %106 = load i32, i32* %7, align 4
  %107 = load i32, i32* %2, align 4
  %108 = icmp slt i32 %106, %107
  br i1 %108, label %109, label %148

109:                                              ; preds = %105
  store i32 0, i32* %8, align 4
  br label %110

110:                                              ; preds = %141, %109
  %111 = load i32, i32* %8, align 4
  %112 = sext i32 %111 to i64
  %113 = load i32, i32* %7, align 4
  %114 = sext i32 %113 to i64
  %115 = getelementptr inbounds [1000 x [27 x i8]], [1000 x [27 x i8]]* %4, i64 0, i64 %114
  %116 = getelementptr inbounds [27 x i8], [27 x i8]* %115, i64 0, i64 0
  %117 = call i64 @strlen(i8* %116) #4
  %118 = icmp ult i64 %112, %117
  br i1 %118, label %119, label %144

119:                                              ; preds = %110
  %120 = load i32, i32* %7, align 4
  %121 = sext i32 %120 to i64
  %122 = getelementptr inbounds [1000 x [27 x i8]], [1000 x [27 x i8]]* %4, i64 0, i64 %121
  %123 = load i32, i32* %8, align 4
  %124 = sext i32 %123 to i64
  %125 = getelementptr inbounds [27 x i8], [27 x i8]* %122, i64 0, i64 %124
  %126 = load i8, i8* %125, align 1
  %127 = sext i8 %126 to i32
  %128 = load i32, i32* %10, align 4
  %129 = sext i32 %128 to i64
  %130 = getelementptr inbounds [26 x i8], [26 x i8]* %5, i64 0, i64 %129
  %131 = load i8, i8* %130, align 1
  %132 = sext i8 %131 to i32
  %133 = icmp eq i32 %127, %132
  br i1 %133, label %134, label %140

134:                                              ; preds = %119
  %135 = load i32, i32* %7, align 4
  %136 = sext i32 %135 to i64
  %137 = getelementptr inbounds [1000 x i32], [1000 x i32]* %3, i64 0, i64 %136
  %138 = load i32, i32* %137, align 4
  %139 = call i32 (i8*, ...) @printf(i8* getelementptr inbounds ([4 x i8], [4 x i8]* @.str.3, i64 0, i64 0), i32 %138)
  br label %144

140:                                              ; preds = %119
  br label %141

141:                                              ; preds = %140
  %142 = load i32, i32* %8, align 4
  %143 = add nsw i32 %142, 1
  store i32 %143, i32* %8, align 4
  br label %110

144:                                              ; preds = %134, %110
  br label %145

145:                                              ; preds = %144
  %146 = load i32, i32* %7, align 4
  %147 = add nsw i32 %146, 1
  store i32 %147, i32* %7, align 4
  br label %105

148:                                              ; preds = %105
  ret i32 0
}